(dp0
S'Robert_Louis_Stevenson'
p1
I7
sS'Rudyard_Kipling'
p2
I8
sS'Mark_Twain'
p3
I5
sS'Walt_Whitman'
p4
I10
sS'James_Joyce'
p5
I3
sS'Jonathan_Swift'
p6
I4
sS'Sir_Arthur_Conan_Doyle'
p7
I9
sS'Charlotte_Bronte'
p8
I1
sS'O_Henry'
p9
I6
sS'Edgar_Allan_Poe'
p10
I2
sS'Abraham_Lincoln'
p11
I0
s.